target datalayout = "e-m:e-p270:32:32-p271:32:32-p272:64:64-i64:64-i128:128-f80:128-n8:16:32:64-S128"
target triple = "x86_64-pc-linux-gnu"

%struct.VideoSizeAbbr = type { ptr, i32, i32 }

; Function Attrs: nounwind uwtable
define i32 @av_parse_video_size(ptr noundef %0, ptr noundef %1, ptr noundef %2) #0 {
  %4 = alloca i32, align 4
  %5 = alloca ptr, align 8
  %6 = alloca ptr, align 8
  %7 = alloca ptr, align 8
  %8 = alloca i32, align 4
  %9 = alloca i32, align 4
  %10 = alloca ptr, align 8
  %11 = alloca i32, align 4
  %12 = alloca i32, align 4
  %13 = alloca i32, align 4
  store ptr %0, ptr %5, align 8, !tbaa !20
  store ptr %1, ptr %6, align 8, !tbaa !20
  store ptr %2, ptr %7, align 8, !tbaa !9
  call void @llvm.lifetime.start.p0(i64 4, ptr %8) #10
  call void @llvm.lifetime.start.p0(i64 4, ptr %9) #10
  store i32 55, ptr %9, align 4, !tbaa !11
  call void @llvm.lifetime.start.p0(i64 8, ptr %10) #10
  call void @llvm.lifetime.start.p0(i64 4, ptr %11) #10
  store i32 0, ptr %11, align 4, !tbaa !11
  call void @llvm.lifetime.start.p0(i64 4, ptr %12) #10
  store i32 0, ptr %12, align 4, !tbaa !11
  store i32 0, ptr %8, align 4, !tbaa !11
  br label %14

14:                                               ; preds = %39, %3
  %15 = load i32, ptr %8, align 4, !tbaa !11
  %16 = load i32, ptr %9, align 4, !tbaa !11
  %17 = icmp slt i32 %15, %16
  br i1 %17, label %18, label %42

18:                                               ; preds = %14
  %19 = load i32, ptr %8, align 4, !tbaa !11
  %20 = sext i32 %19 to i64
  %21 = getelementptr inbounds [55 x %struct.VideoSizeAbbr], ptr @video_size_abbrs, i64 0, i64 %20
  %22 = getelementptr inbounds nuw %struct.VideoSizeAbbr, ptr %21, i32 0, i32 0
  %23 = load ptr, ptr %22, align 16, !tbaa !22
  %24 = load ptr, ptr %7, align 8, !tbaa !9
  %25 = call i32 @strcmp(ptr noundef %23, ptr noundef %24) #12
  %26 = icmp ne i32 %25, 0
  br i1 %26, label %38, label %27

27:                                               ; preds = %18
  %28 = load i32, ptr %8, align 4, !tbaa !11
  %29 = sext i32 %28 to i64
  %30 = getelementptr inbounds [55 x %struct.VideoSizeAbbr], ptr @video_size_abbrs, i64 0, i64 %29
  %31 = getelementptr inbounds nuw %struct.VideoSizeAbbr, ptr %30, i32 0, i32 1
  %32 = load i32, ptr %31, align 8, !tbaa !24
  store i32 %32, ptr %11, align 4, !tbaa !11
  %33 = load i32, ptr %8, align 4, !tbaa !11
  %34 = sext i32 %33 to i64
  %35 = getelementptr inbounds [55 x %struct.VideoSizeAbbr], ptr @video_size_abbrs, i64 0, i64 %34
  %36 = getelementptr inbounds nuw %struct.VideoSizeAbbr, ptr %35, i32 0, i32 2
  %37 = load i32, ptr %36, align 4, !tbaa !25
  store i32 %37, ptr %12, align 4, !tbaa !11
  br label %42

38:                                               ; preds = %18
  br label %39

39:                                               ; preds = %38
  %40 = load i32, ptr %8, align 4, !tbaa !11
  %41 = add nsw i32 %40, 1
  store i32 %41, ptr %8, align 4, !tbaa !11
  br label %14, !llvm.loop !26

42:                                               ; preds = %27, %14
  %43 = load i32, ptr %8, align 4, !tbaa !11
  %44 = load i32, ptr %9, align 4, !tbaa !11
  %45 = icmp eq i32 %43, %44
  br i1 %45, label %46, label %65

46:                                               ; preds = %42
  %47 = load ptr, ptr %7, align 8, !tbaa !9
  %48 = call i64 @strtol(ptr noundef %47, ptr noundef %10, i32 noundef 10) #10
  %49 = trunc i64 %48 to i32
  store i32 %49, ptr %11, align 4, !tbaa !11
  %50 = load ptr, ptr %10, align 8, !tbaa !9
  %51 = load i8, ptr %50, align 1, !tbaa !28
  %52 = icmp ne i8 %51, 0
  br i1 %52, label %53, label %56

53:                                               ; preds = %46
  %54 = load ptr, ptr %10, align 8, !tbaa !9
  %55 = getelementptr inbounds nuw i8, ptr %54, i32 1
  store ptr %55, ptr %10, align 8, !tbaa !9
  br label %56

56:                                               ; preds = %53, %46
  %57 = load ptr, ptr %10, align 8, !tbaa !9
  %58 = call i64 @strtol(ptr noundef %57, ptr noundef %10, i32 noundef 10) #10
  %59 = trunc i64 %58 to i32
  store i32 %59, ptr %12, align 4, !tbaa !11
  %60 = load ptr, ptr %10, align 8, !tbaa !9
  %61 = load i8, ptr %60, align 1, !tbaa !28
  %62 = icmp ne i8 %61, 0
  br i1 %62, label %63, label %64

63:                                               ; preds = %56
  store i32 -22, ptr %4, align 4
  store i32 1, ptr %13, align 4
  br label %77

64:                                               ; preds = %56
  br label %65

65:                                               ; preds = %64, %42
  %66 = load i32, ptr %11, align 4, !tbaa !11
  %67 = icmp sle i32 %66, 0
  br i1 %67, label %71, label %68

68:                                               ; preds = %65
  %69 = load i32, ptr %12, align 4, !tbaa !11
  %70 = icmp sle i32 %69, 0
  br i1 %70, label %71, label %72

71:                                               ; preds = %68, %65
  store i32 -22, ptr %4, align 4
  store i32 1, ptr %13, align 4
  br label %77

72:                                               ; preds = %68
  %73 = load i32, ptr %11, align 4, !tbaa !11
  %74 = load ptr, ptr %5, align 8, !tbaa !20
  store i32 %73, ptr %74, align 4, !tbaa !11
  %75 = load i32, ptr %12, align 4, !tbaa !11
  %76 = load ptr, ptr %6, align 8, !tbaa !20
  store i32 %75, ptr %76, align 4, !tbaa !11
  store i32 0, ptr %4, align 4
  store i32 1, ptr %13, align 4
  br label %77

77:                                               ; preds = %72, %71, %63
  call void @llvm.lifetime.end.p0(i64 4, ptr %12) #10
  call void @llvm.lifetime.end.p0(i64 4, ptr %11) #10
  call void @llvm.lifetime.end.p0(i64 8, ptr %10) #10
  call void @llvm.lifetime.end.p0(i64 4, ptr %9) #10
  call void @llvm.lifetime.end.p0(i64 4, ptr %8) #10
  %78 = load i32, ptr %4, align 4
  ret i32 %78
}