; Function Attrs: nofree norecurse nounwind uwtable
define range(i32 -22, 1) i32 @av_parse_video_size(ptr noundef writeonly captures(none) %0, ptr noundef writeonly captures(none) %1, ptr noundef %2) local_unnamed_addr #6 {
  %4 = alloca ptr, align 8
  call void @llvm.lifetime.start.p0(i64 8, ptr nonnull %4) #16
  br label %5

5:                                                ; preds = %3, %13
  %indvars.iv = phi i64 [ 0, %3 ], [ %indvars.iv.next, %13 ]
  %6 = getelementptr inbounds nuw [55 x %struct.VideoSizeAbbr], ptr @video_size_abbrs, i64 0, i64 %indvars.iv
  %7 = load ptr, ptr %6, align 16, !tbaa !12
  %8 = tail call i32 @strcmp(ptr noundef nonnull dereferenceable(1) %7, ptr noundef nonnull dereferenceable(1) %2) #18
  %.not = icmp eq i32 %8, 0
  br i1 %.not, label %.thread, label %13

.thread:                                          ; preds = %5
  %9 = getelementptr inbounds nuw i8, ptr %6, i64 8
  %10 = load i32, ptr %9, align 8, !tbaa !16
  %11 = getelementptr inbounds nuw i8, ptr %6, i64 12
  %12 = load i32, ptr %11, align 4, !tbaa !17
  br label %27

13:                                               ; preds = %5
  %indvars.iv.next = add nuw nsw i64 %indvars.iv, 1
  %exitcond.not = icmp eq i64 %indvars.iv.next, 55
  br i1 %exitcond.not, label %14, label %5, !llvm.loop !18

14:                                               ; preds = %13
  %15 = call i64 @strtol(ptr noundef nonnull %2, ptr noundef nonnull %4, i32 noundef 10) #16
  %16 = trunc i64 %15 to i32
  %17 = load ptr, ptr %4, align 8, !tbaa !20
  %18 = load i8, ptr %17, align 1, !tbaa !21
  %.not21 = icmp eq i8 %18, 0
  br i1 %.not21, label %21, label %19

19:                                               ; preds = %14
  %20 = getelementptr inbounds nuw i8, ptr %17, i64 1
  store ptr %20, ptr %4, align 8, !tbaa !20
  br label %21

21:                                               ; preds = %19, %14
  %22 = phi ptr [ %20, %19 ], [ %17, %14 ]
  %23 = call i64 @strtol(ptr noundef nonnull %22, ptr noundef nonnull %4, i32 noundef 10) #16
  %24 = trunc i64 %23 to i32
  %25 = load ptr, ptr %4, align 8, !tbaa !20
  %26 = load i8, ptr %25, align 1, !tbaa !21
  %.not22 = icmp eq i8 %26, 0
  br i1 %.not22, label %27, label %.thread25

27:                                               ; preds = %.thread, %21
  %.118 = phi i32 [ %16, %21 ], [ %10, %.thread ]
  %.1 = phi i32 [ %24, %21 ], [ %12, %.thread ]
  %28 = icmp slt i32 %.118, 1
  %29 = icmp slt i32 %.1, 1
  %or.cond = select i1 %28, i1 true, i1 %29
  br i1 %or.cond, label %.thread25, label %30

30:                                               ; preds = %27
  store i32 %.118, ptr %0, align 4, !tbaa !22
  store i32 %.1, ptr %1, align 4, !tbaa !22
  br label %.thread25

.thread25:                                        ; preds = %27, %21, %30
  %.019 = phi i32 [ 0, %30 ], [ -22, %21 ], [ -22, %27 ]
  call void @llvm.lifetime.end.p0(i64 8, ptr nonnull %4) #16
  ret i32 %.019
}